
test.elf:     format de fichier elf32-littleriscv


Déassemblage de la section .note.gnu.build-id :

00000000 <_erodata>:
   0:	0004                	.insn	2, 0x0004
   2:	0000                	.insn	2, 0x0000
   4:	0014                	.insn	2, 0x0014
   6:	0000                	.insn	2, 0x0000
   8:	00000003          	lb	zero,0(zero) # 0 <_erodata>
   c:	00554e47          	.insn	4, 0x00554e47
  10:	2258                	.insn	2, 0x2258
  12:	6e7a                	.insn	2, 0x6e7a
  14:	391f b66c 27e2      	.insn	6, 0x27e2b66c391f
  1a:	cea4                	.insn	2, 0xcea4
  1c:	1ab5                	.insn	2, 0x1ab5
  1e:	97ce370f          	.insn	4, 0x97ce370f
  22:	ceaf                	.short	0xceaf

Déassemblage de la section text :

00000000 <_start>:
   0:	00000093          	li	ra,0
   4:	00500113          	li	sp,5
   8:	00000193          	li	gp,0
   c:	00000293          	li	t0,0

00000010 <loop>:
  10:	00108093          	addi	ra,ra,1
  14:	00418193          	addi	gp,gp,4
  18:	0011a023          	sw	ra,0(gp)
  1c:	0001a203          	lw	tp,0(gp)
  20:	004282b3          	add	t0,t0,tp
  24:	00208463          	beq	ra,sp,2c <end>
  28:	fe0004e3          	beqz	zero,10 <loop>

0000002c <end>:
  2c:	00000013          	nop

Déassemblage de la section .riscv.attributes :

00000000 <.riscv.attributes>:
   0:	1941                	.insn	2, 0x1941
   2:	0000                	.insn	2, 0x0000
   4:	7200                	.insn	2, 0x7200
   6:	7369                	.insn	2, 0x7369
   8:	01007663          	bgeu	zero,a6,14 <loop+0x4>
   c:	0000000f          	fence	unknown,unknown
  10:	7205                	.insn	2, 0x7205
  12:	3376                	.insn	2, 0x3376
  14:	6932                	.insn	2, 0x6932
  16:	7032                	.insn	2, 0x7032
  18:	0031                	.insn	2, 0x0031
